; Function Attrs: nounwind uwtable
define void @Gia_Ga2SendAbsracted(ptr noundef readonly captures(none) %0, i32 %1) local_unnamed_addr #4 {
  %3 = tail call ptr @Ga2_ManAbsTranslate(ptr noundef %0)
  %4 = load ptr, ptr %0, align 8
  %5 = tail call ptr @Gia_ManDupAbsGates(ptr noundef %4, ptr noundef %3) #28
  %6 = icmp eq ptr %3, null
  br i1 %6, label %Vec_IntFreeP.exit, label %7

7:                                                ; preds = %2
  %8 = getelementptr inbounds nuw i8, ptr %3, i64 8
  %9 = load ptr, ptr %8, align 8
  %.not.i = icmp eq ptr %9, null
  br i1 %.not.i, label %.thread.i, label %10

10:                                               ; preds = %7
  tail call void @free(ptr noundef nonnull %9) #28
  br label %.thread.i

.thread.i:                                        ; preds = %10, %7
  tail call void @free(ptr noundef nonnull %3) #28
  br label %Vec_IntFreeP.exit

Vec_IntFreeP.exit:                                ; preds = %2, %.thread.i
  %11 = load ptr, ptr %0, align 8
  tail call void @Gia_ManCleanValue(ptr noundef %11) #28
  %12 = load ptr, ptr @stdout, align 8
  %13 = tail call i32 @Gia_ManToBridgeAbsNetlist(ptr noundef %12, ptr noundef %5, i32 noundef 107) #28
  tail call void @Gia_ManStop(ptr noundef %5) #28
  ret void
}